; Function Attrs: nounwind uwtable
define dso_local i32 @cm_zlib_gzflush(ptr noundef %0, i32 noundef %1) local_unnamed_addr #0 {
  %3 = icmp eq ptr %0, null
  br i1 %3, label %44, label %4

4:                                                ; preds = %2
  %5 = getelementptr inbounds nuw i8, ptr %0, i64 24
  %6 = load i32, ptr %5, align 8, !tbaa !4
  %.not = icmp eq i32 %6, 31153
  br i1 %.not, label %7, label %44

7:                                                ; preds = %4
  %8 = getelementptr inbounds nuw i8, ptr %0, i64 116
  %9 = load i32, ptr %8, align 4, !tbaa !15
  %.not17 = icmp ne i32 %9, 0
  %or.cond = icmp ugt i32 %1, 4
  %or.cond19 = or i1 %or.cond, %.not17
  br i1 %or.cond19, label %44, label %10

10:                                               ; preds = %7
  %11 = getelementptr inbounds nuw i8, ptr %0, i64 112
  %12 = load i32, ptr %11, align 8, !tbaa !17
  %.not18 = icmp eq i32 %12, 0
  br i1 %.not18, label %gz_zero.exit, label %13

13:                                               ; preds = %10
  store i32 0, ptr %11, align 8, !tbaa !17
  %14 = getelementptr inbounds nuw i8, ptr %0, i64 104
  %15 = load i64, ptr %14, align 8, !tbaa !18
  %16 = getelementptr inbounds nuw i8, ptr %0, i64 128
  %17 = getelementptr inbounds nuw i8, ptr %0, i64 136
  %18 = load i32, ptr %17, align 8, !tbaa !19
  %.not.i = icmp eq i32 %18, 0
  br i1 %.not.i, label %22, label %19

19:                                               ; preds = %13
  %20 = tail call fastcc i32 @gz_comp(ptr noundef nonnull %0, i32 noundef 0)
  %21 = icmp eq i32 %20, -1
  br i1 %21, label %.sink.split, label %22

22:                                               ; preds = %19, %13
  %.not2224.i = icmp eq i64 %15, 0
  br i1 %.not2224.i, label %gz_zero.exit, label %.lr.ph.i

.lr.ph.i:                                         ; preds = %22
  %23 = getelementptr inbounds nuw i8, ptr %0, i64 40
  %24 = getelementptr inbounds nuw i8, ptr %0, i64 48
  %25 = getelementptr inbounds nuw i8, ptr %0, i64 16
  br label %28

26:                                               ; preds = %36
  %27 = sub nsw i64 %.02026.i, %.pre-phi.i
  %.not22.i = icmp eq i64 %27, 0
  br i1 %.not22.i, label %gz_zero.exit, label %28, !llvm.loop !20

28:                                               ; preds = %26, %.lr.ph.i
  %.02026.i = phi i64 [ %15, %.lr.ph.i ], [ %27, %26 ]
  %.not2325.i = phi i1 [ false, %.lr.ph.i ], [ true, %26 ]
  %29 = load i32, ptr %23, align 8, !tbaa !16
  %30 = zext i32 %29 to i64
  %31 = tail call i64 @llvm.smin.i64(i64 %.02026.i, i64 %30)
  %32 = trunc i64 %31 to i32
  br i1 %.not2325.i, label %._crit_edge.i, label %33

._crit_edge.i:                                    ; preds = %28
  %.pre.i = and i64 %31, 4294967295
  br label %36

33:                                               ; preds = %28
  %34 = load ptr, ptr %24, align 8, !tbaa !22
  %35 = and i64 %31, 4294967295
  tail call void @llvm.memset.p0.i64(ptr align 1 %34, i8 0, i64 %35, i1 false)
  br label %36

36:                                               ; preds = %33, %._crit_edge.i
  %.pre-phi.i = phi i64 [ %.pre.i, %._crit_edge.i ], [ %35, %33 ]
  store i32 %32, ptr %17, align 8, !tbaa !19
  %37 = load ptr, ptr %24, align 8, !tbaa !22
  store ptr %37, ptr %16, align 8, !tbaa !23
  %38 = load i64, ptr %25, align 8, !tbaa !24
  %39 = add nsw i64 %38, %.pre-phi.i
  store i64 %39, ptr %25, align 8, !tbaa !24
  %40 = tail call fastcc i32 @gz_comp(ptr noundef nonnull %0, i32 noundef 0)
  %41 = icmp eq i32 %40, -1
  br i1 %41, label %.sink.split, label %26

gz_zero.exit:                                     ; preds = %26, %22, %10
  %42 = tail call fastcc i32 @gz_comp(ptr noundef %0, i32 noundef %1)
  br label %.sink.split

.sink.split:                                      ; preds = %36, %19, %gz_zero.exit
  %43 = load i32, ptr %8, align 4, !tbaa !15
  br label %44

44:                                               ; preds = %.sink.split, %4, %7, %2
  %.0 = phi i32 [ -2, %2 ], [ -2, %7 ], [ -2, %4 ], [ %43, %.sink.split ]
  ret i32 %.0
}